target datalayout = "e-m:e-p270:32:32-p271:32:32-p272:64:64-i64:64-i128:128-f80:128-n8:16:32:64-S128"
target triple = "x86_64-pc-linux-gnu"

%struct.SwsSlice = type { i32, i32, i32, i32, i32, i32, [4 x %struct.SwsPlane] }
%struct.SwsPlane = type { i32, i32, i32, ptr, ptr }

; Function Attrs: nounwind uwtable
define i32 @ff_rotate_slice(ptr noundef %0, i32 noundef %1, i32 noundef %2) #0 {
  %4 = alloca ptr, align 8
  %5 = alloca i32, align 4
  %6 = alloca i32, align 4
  %7 = alloca i32, align 4
  %8 = alloca i32, align 4
  %9 = alloca i32, align 4
  %10 = alloca i32, align 4
  %11 = alloca i32, align 4
  store ptr %0, ptr %4, align 8, !tbaa !4
  store i32 %1, ptr %5, align 4, !tbaa !9
  store i32 %2, ptr %6, align 4, !tbaa !9
  call void @llvm.lifetime.start.p0(i64 4, ptr %7) #7
  %12 = load i32, ptr %5, align 4, !tbaa !9
  %13 = icmp ne i32 %12, 0
  br i1 %13, label %14, label %63

14:                                               ; preds = %3
  store i32 0, ptr %7, align 4, !tbaa !9
  br label %15

15:                                               ; preds = %59, %14
  %16 = load i32, ptr %7, align 4, !tbaa !9
  %17 = icmp slt i32 %16, 4
  br i1 %17, label %18, label %62

18:                                               ; preds = %15
  call void @llvm.lifetime.start.p0(i64 4, ptr %8) #7
  %19 = load ptr, ptr %4, align 8, !tbaa !4
  %20 = getelementptr inbounds nuw %struct.SwsSlice, ptr %19, i32 0, i32 6
  %21 = load i32, ptr %7, align 4, !tbaa !9
  %22 = sext i32 %21 to i64
  %23 = getelementptr inbounds [4 x %struct.SwsPlane], ptr %20, i64 0, i64 %22
  %24 = getelementptr inbounds nuw %struct.SwsPlane, ptr %23, i32 0, i32 0
  %25 = load i32, ptr %24, align 8, !tbaa !11
  store i32 %25, ptr %8, align 4, !tbaa !9
  call void @llvm.lifetime.start.p0(i64 4, ptr %9) #7
  %26 = load i32, ptr %5, align 4, !tbaa !9
  %27 = load ptr, ptr %4, align 8, !tbaa !4
  %28 = getelementptr inbounds nuw %struct.SwsSlice, ptr %27, i32 0, i32 6
  %29 = load i32, ptr %7, align 4, !tbaa !9
  %30 = sext i32 %29 to i64
  %31 = getelementptr inbounds [4 x %struct.SwsPlane], ptr %28, i64 0, i64 %30
  %32 = getelementptr inbounds nuw %struct.SwsPlane, ptr %31, i32 0, i32 1
  %33 = load i32, ptr %32, align 4, !tbaa !15
  %34 = sub nsw i32 %26, %33
  store i32 %34, ptr %9, align 4, !tbaa !9
  %35 = load i32, ptr %9, align 4, !tbaa !9
  %36 = load i32, ptr %8, align 4, !tbaa !9
  %37 = mul nsw i32 %36, 2
  %38 = icmp sge i32 %35, %37
  br i1 %38, label %39, label %58

39:                                               ; preds = %18
  %40 = load i32, ptr %8, align 4, !tbaa !9
  %41 = load ptr, ptr %4, align 8, !tbaa !4
  %42 = getelementptr inbounds nuw %struct.SwsSlice, ptr %41, i32 0, i32 6
  %43 = load i32, ptr %7, align 4, !tbaa !9
  %44 = sext i32 %43 to i64
  %45 = getelementptr inbounds [4 x %struct.SwsPlane], ptr %42, i64 0, i64 %44
  %46 = getelementptr inbounds nuw %struct.SwsPlane, ptr %45, i32 0, i32 1
  %47 = load i32, ptr %46, align 4, !tbaa !15
  %48 = add nsw i32 %47, %40
  store i32 %48, ptr %46, align 4, !tbaa !15
  %49 = load i32, ptr %8, align 4, !tbaa !9
  %50 = load ptr, ptr %4, align 8, !tbaa !4
  %51 = getelementptr inbounds nuw %struct.SwsSlice, ptr %50, i32 0, i32 6
  %52 = load i32, ptr %7, align 4, !tbaa !9
  %53 = sext i32 %52 to i64
  %54 = getelementptr inbounds [4 x %struct.SwsPlane], ptr %51, i64 0, i64 %53
  %55 = getelementptr inbounds nuw %struct.SwsPlane, ptr %54, i32 0, i32 2
  %56 = load i32, ptr %55, align 8, !tbaa !16
  %57 = sub nsw i32 %56, %49
  store i32 %57, ptr %55, align 8, !tbaa !16
  br label %58

58:                                               ; preds = %39, %18
  call void @llvm.lifetime.end.p0(i64 4, ptr %9) #7
  call void @llvm.lifetime.end.p0(i64 4, ptr %8) #7
  br label %59

59:                                               ; preds = %58
  %60 = load i32, ptr %7, align 4, !tbaa !9
  %61 = add nsw i32 %60, 3
  store i32 %61, ptr %7, align 4, !tbaa !9
  br label %15, !llvm.loop !17

62:                                               ; preds = %15
  br label %63

63:                                               ; preds = %62, %3
  %64 = load i32, ptr %6, align 4, !tbaa !9
  %65 = icmp ne i32 %64, 0
  br i1 %65, label %66, label %115

66:                                               ; preds = %63
  store i32 1, ptr %7, align 4, !tbaa !9
  br label %67

67:                                               ; preds = %111, %66
  %68 = load i32, ptr %7, align 4, !tbaa !9
  %69 = icmp slt i32 %68, 3
  br i1 %69, label %70, label %114

70:                                               ; preds = %67
  call void @llvm.lifetime.start.p0(i64 4, ptr %10) #7
  %71 = load ptr, ptr %4, align 8, !tbaa !4
  %72 = getelementptr inbounds nuw %struct.SwsSlice, ptr %71, i32 0, i32 6
  %73 = load i32, ptr %7, align 4, !tbaa !9
  %74 = sext i32 %73 to i64
  %75 = getelementptr inbounds [4 x %struct.SwsPlane], ptr %72, i64 0, i64 %74
  %76 = getelementptr inbounds nuw %struct.SwsPlane, ptr %75, i32 0, i32 0
  %77 = load i32, ptr %76, align 8, !tbaa !11
  store i32 %77, ptr %10, align 4, !tbaa !9
  call void @llvm.lifetime.start.p0(i64 4, ptr %11) #7
  %78 = load i32, ptr %6, align 4, !tbaa !9
  %79 = load ptr, ptr %4, align 8, !tbaa !4
  %80 = getelementptr inbounds nuw %struct.SwsSlice, ptr %79, i32 0, i32 6
  %81 = load i32, ptr %7, align 4, !tbaa !9
  %82 = sext i32 %81 to i64
  %83 = getelementptr inbounds [4 x %struct.SwsPlane], ptr %80, i64 0, i64 %82
  %84 = getelementptr inbounds nuw %struct.SwsPlane, ptr %83, i32 0, i32 1
  %85 = load i32, ptr %84, align 4, !tbaa !15
  %86 = sub nsw i32 %78, %85
  store i32 %86, ptr %11, align 4, !tbaa !9
  %87 = load i32, ptr %11, align 4, !tbaa !9
  %88 = load i32, ptr %10, align 4, !tbaa !9
  %89 = mul nsw i32 %88, 2
  %90 = icmp sge i32 %87, %89
  br i1 %90, label %91, label %110

91:                                               ; preds = %70
  %92 = load i32, ptr %10, align 4, !tbaa !9
  %93 = load ptr, ptr %4, align 8, !tbaa !4
  %94 = getelementptr inbounds nuw %struct.SwsSlice, ptr %93, i32 0, i32 6
  %95 = load i32, ptr %7, align 4, !tbaa !9
  %96 = sext i32 %95 to i64
  %97 = getelementptr inbounds [4 x %struct.SwsPlane], ptr %94, i64 0, i64 %96
  %98 = getelementptr inbounds nuw %struct.SwsPlane, ptr %97, i32 0, i32 1
  %99 = load i32, ptr %98, align 4, !tbaa !15
  %100 = add nsw i32 %99, %92
  store i32 %100, ptr %98, align 4, !tbaa !15
  %101 = load i32, ptr %10, align 4, !tbaa !9
  %102 = load ptr, ptr %4, align 8, !tbaa !4
  %103 = getelementptr inbounds nuw %struct.SwsSlice, ptr %102, i32 0, i32 6
  %104 = load i32, ptr %7, align 4, !tbaa !9
  %105 = sext i32 %104 to i64
  %106 = getelementptr inbounds [4 x %struct.SwsPlane], ptr %103, i64 0, i64 %105
  %107 = getelementptr inbounds nuw %struct.SwsPlane, ptr %106, i32 0, i32 2
  %108 = load i32, ptr %107, align 8, !tbaa !16
  %109 = sub nsw i32 %108, %101
  store i32 %109, ptr %107, align 8, !tbaa !16
  br label %110

110:                                              ; preds = %91, %70
  call void @llvm.lifetime.end.p0(i64 4, ptr %11) #7
  call void @llvm.lifetime.end.p0(i64 4, ptr %10) #7
  br label %111

111:                                              ; preds = %110
  %112 = load i32, ptr %7, align 4, !tbaa !9
  %113 = add nsw i32 %112, 1
  store i32 %113, ptr %7, align 4, !tbaa !9
  br label %67, !llvm.loop !19

114:                                              ; preds = %67
  br label %115

115:                                              ; preds = %114, %63
  call void @llvm.lifetime.end.p0(i64 4, ptr %7) #7
  ret i32 0
}