; Function Attrs: nofree norecurse nosync nounwind memory(argmem: readwrite) uwtable
define noundef i32 @ff_rotate_slice(ptr noundef captures(none) %0, i32 noundef %1, i32 noundef %2) local_unnamed_addr #0 {
  %.not = icmp eq i32 %1, 0
  br i1 %.not, label %.loopexit37, label %.preheader36

.preheader36:                                     ; preds = %3
  %4 = getelementptr inbounds nuw i8, ptr %0, i64 24
  br label %5

5:                                                ; preds = %.preheader36, %18
  %6 = phi i1 [ true, %.preheader36 ], [ false, %18 ]
  %indvars.iv = phi i64 [ 0, %.preheader36 ], [ 3, %18 ]
  %7 = getelementptr inbounds nuw [4 x %struct.SwsPlane], ptr %4, i64 0, i64 %indvars.iv
  %8 = load i32, ptr %7, align 8, !tbaa !4
  %9 = getelementptr inbounds nuw i8, ptr %7, i64 4
  %10 = load i32, ptr %9, align 4, !tbaa !12
  %11 = sub nsw i32 %1, %10
  %12 = shl nsw i32 %8, 1
  %.not35 = icmp slt i32 %11, %12
  br i1 %.not35, label %18, label %13

13:                                               ; preds = %5
  %14 = add nsw i32 %10, %8
  store i32 %14, ptr %9, align 4, !tbaa !12
  %15 = getelementptr inbounds nuw i8, ptr %7, i64 8
  %16 = load i32, ptr %15, align 8, !tbaa !13
  %17 = sub nsw i32 %16, %8
  store i32 %17, ptr %15, align 8, !tbaa !13
  br label %18

18:                                               ; preds = %13, %5
  br i1 %6, label %5, label %.loopexit37, !llvm.loop !14

.loopexit37:                                      ; preds = %18, %3
  %.not33 = icmp eq i32 %2, 0
  br i1 %.not33, label %.loopexit, label %.preheader

.preheader:                                       ; preds = %.loopexit37
  %19 = getelementptr inbounds nuw i8, ptr %0, i64 24
  br label %20

20:                                               ; preds = %.preheader, %32
  %indvars.iv41 = phi i64 [ 1, %.preheader ], [ %indvars.iv.next42, %32 ]
  %21 = getelementptr inbounds nuw [4 x %struct.SwsPlane], ptr %19, i64 0, i64 %indvars.iv41
  %22 = load i32, ptr %21, align 8, !tbaa !4
  %23 = getelementptr inbounds nuw i8, ptr %21, i64 4
  %24 = load i32, ptr %23, align 4, !tbaa !12
  %25 = sub nsw i32 %2, %24
  %26 = shl nsw i32 %22, 1
  %.not34 = icmp slt i32 %25, %26
  br i1 %.not34, label %32, label %27

27:                                               ; preds = %20
  %28 = add nsw i32 %24, %22
  store i32 %28, ptr %23, align 4, !tbaa !12
  %29 = getelementptr inbounds nuw i8, ptr %21, i64 8
  %30 = load i32, ptr %29, align 8, !tbaa !13
  %31 = sub nsw i32 %30, %22
  store i32 %31, ptr %29, align 8, !tbaa !13
  br label %32

32:                                               ; preds = %27, %20
  %indvars.iv.next42 = add nuw nsw i64 %indvars.iv41, 1
  %exitcond.not = icmp eq i64 %indvars.iv.next42, 3
  br i1 %exitcond.not, label %.loopexit, label %20, !llvm.loop !16

.loopexit:                                        ; preds = %32, %.loopexit37
  ret i32 0
}